target datalayout = "e-m:e-p270:32:32-p271:32:32-p272:64:64-i64:64-i128:128-f80:128-n8:16:32:64-S128"
target triple = "x86_64-pc-linux-gnu"

%"struct.Type::TypeInfo" = type { i32, i8, ptr, i8, i32, i32 }
%class.Phase = type { i32, ptr }
%class.Node = type <{ ptr, ptr, ptr, i32, i32, i32, i32, i32, i32, i32, [4 x i8] }>
%class.PhaseValues = type { %class.PhaseTransform, i8, ptr, ptr, [137 x ptr], [137 x ptr], [20 x ptr] }
%class.PhaseTransform = type { ptr, %class.Phase }
%class.Type = type <{ ptr, ptr, i32, [4 x i8] }>
%class.Type_Array = type { ptr, i32, ptr }

@_ZN4Type3TOPE = external global ptr, align 8
@_ZN4Type10_type_infoE = external global [0 x %"struct.Type::TypeInfo"], align 8

; Function Attrs: mustprogress nounwind uwtable
define linkonce_odr hidden noundef ptr @_ZNK10Type_Array11fast_lookupEj(ptr noundef nonnull align 8 dereferenceable(24) %0, i32 noundef %1) #1 comdat align 2 {
  %3 = alloca ptr, align 8
  %4 = alloca i32, align 4
  store ptr %0, ptr %3, align 8
  store i32 %1, ptr %4, align 4
  %5 = load ptr, ptr %3, align 8
  %6 = getelementptr inbounds %class.Type_Array, ptr %5, i32 0, i32 2
  %7 = load ptr, ptr %6, align 8
  %8 = load i32, ptr %4, align 4
  %9 = zext i32 %8 to i64
  %10 = getelementptr inbounds ptr, ptr %7, i64 %9
  %11 = load ptr, ptr %10, align 8
  ret ptr %11
}

; Function Attrs: mustprogress nounwind uwtable
define hidden noundef i64 @_ZN16CompressBitsNode13compress_bitsElli(i64 noundef %0, i64 noundef %1, i32 noundef %2) #1 align 2 {
  %4 = alloca i64, align 8
  %5 = alloca i64, align 8
  %6 = alloca i32, align 4
  %7 = alloca i64, align 8
  %8 = alloca i32, align 4
  %9 = alloca i32, align 4
  store i64 %0, ptr %4, align 8
  store i64 %1, ptr %5, align 8
  store i32 %2, ptr %6, align 4
  store i64 0, ptr %7, align 8
  store i32 0, ptr %8, align 4
  store i32 0, ptr %9, align 4
  br label %10

10:                                               ; preds = %32, %3
  %11 = load i32, ptr %8, align 4
  %12 = load i32, ptr %6, align 4
  %13 = icmp slt i32 %11, %12
  br i1 %13, label %14, label %35

14:                                               ; preds = %10
  %15 = load i64, ptr %5, align 8
  %16 = and i64 %15, 1
  %17 = icmp ne i64 %16, 0
  br i1 %17, label %18, label %27

18:                                               ; preds = %14
  %19 = load i64, ptr %4, align 8
  %20 = and i64 %19, 1
  %21 = load i32, ptr %9, align 4
  %22 = add nsw i32 %21, 1
  store i32 %22, ptr %9, align 4
  %23 = zext i32 %21 to i64
  %24 = shl i64 %20, %23
  %25 = load i64, ptr %7, align 8
  %26 = or i64 %25, %24
  store i64 %26, ptr %7, align 8
  br label %27

27:                                               ; preds = %18, %14
  %28 = load i64, ptr %4, align 8
  %29 = ashr i64 %28, 1
  store i64 %29, ptr %4, align 8
  %30 = load i64, ptr %5, align 8
  %31 = ashr i64 %30, 1
  store i64 %31, ptr %5, align 8
  br label %32

32:                                               ; preds = %27
  %33 = load i32, ptr %8, align 4
  %34 = add nsw i32 %33, 1
  store i32 %34, ptr %8, align 4
  br label %10, !llvm.loop !6

35:                                               ; preds = %10
  %36 = load i64, ptr %7, align 8
  ret i64 %36
}

; Function Attrs: mustprogress nounwind uwtable
define linkonce_odr hidden noundef zeroext i1 @_ZNK11TypeInteger6is_conEv(ptr noundef nonnull align 8 dereferenceable(22) %0) #1 comdat align 2 {
  %2 = alloca ptr, align 8
  store ptr %0, ptr %2, align 8
  %3 = load ptr, ptr %2, align 8
  %4 = load ptr, ptr %3, align 8
  %5 = getelementptr inbounds ptr, ptr %4, i64 23
  %6 = load ptr, ptr %5, align 8
  %7 = call noundef i64 %6(ptr noundef nonnull align 8 dereferenceable(22) %3)
  %8 = load ptr, ptr %3, align 8
  %9 = getelementptr inbounds ptr, ptr %8, i64 22
  %10 = load ptr, ptr %9, align 8
  %11 = call noundef i64 %10(ptr noundef nonnull align 8 dereferenceable(22) %3)
  %12 = icmp eq i64 %7, %11
  ret i1 %12
}

; Function Attrs: mustprogress nounwind uwtable
define linkonce_odr hidden noundef ptr @_ZNK4Type10is_integerE9BasicType(ptr noundef nonnull align 8 dereferenceable(20) %0, i8 noundef zeroext %1) #1 comdat align 2 {
  %3 = alloca ptr, align 8
  %4 = alloca i8, align 1
  store ptr %0, ptr %3, align 8
  store i8 %1, ptr %4, align 1
  %5 = load ptr, ptr %3, align 8
  ret ptr %5
}

; Function Attrs: mustprogress nounwind uwtable
define linkonce_odr hidden noundef zeroext i8 @_ZNK4Type10basic_typeEv(ptr noundef nonnull align 8 dereferenceable(20) %0) #1 comdat align 2 {
  %2 = alloca ptr, align 8
  store ptr %0, ptr %2, align 8
  %3 = load ptr, ptr %2, align 8
  %4 = getelementptr inbounds %class.Type, ptr %3, i32 0, i32 2
  %5 = load i32, ptr %4, align 8
  %6 = zext i32 %5 to i64
  %7 = getelementptr inbounds [0 x %"struct.Type::TypeInfo"], ptr @_ZN4Type10_type_infoE, i64 0, i64 %6
  %8 = getelementptr inbounds %"struct.Type::TypeInfo", ptr %7, i32 0, i32 1
  %9 = load i8, ptr %8, align 4
  ret i8 %9
}

; Function Attrs: mustprogress nounwind uwtable
define linkonce_odr hidden noundef ptr @_ZNK11PhaseValues4typeEPK4Node(ptr noundef nonnull align 8 dereferenceable(2400) %0, ptr noundef %1) #1 comdat align 2 {
  %3 = alloca ptr, align 8
  %4 = alloca ptr, align 8
  %5 = alloca ptr, align 8
  store ptr %0, ptr %3, align 8
  store ptr %1, ptr %4, align 8
  %6 = load ptr, ptr %3, align 8
  %7 = getelementptr inbounds %class.PhaseValues, ptr %6, i32 0, i32 3
  %8 = load ptr, ptr %7, align 8
  %9 = load ptr, ptr %4, align 8
  %10 = getelementptr inbounds %class.Node, ptr %9, i32 0, i32 7
  %11 = load i32, ptr %10, align 8
  %12 = call noundef ptr @_ZNK10Type_Array11fast_lookupEj(ptr noundef nonnull align 8 dereferenceable(24) %8, i32 noundef %11)
  store ptr %12, ptr %5, align 8
  %13 = load ptr, ptr %5, align 8
  ret ptr %13
}

; Function Attrs: mustprogress nounwind uwtable
define linkonce_odr hidden noundef ptr @_ZNK4Node2inEj(ptr noundef nonnull align 8 dereferenceable(52) %0, i32 noundef %1) #1 comdat align 2 {
  %3 = alloca ptr, align 8
  %4 = alloca i32, align 4
  store ptr %0, ptr %3, align 8
  store i32 %1, ptr %4, align 4
  %5 = load ptr, ptr %3, align 8
  %6 = getelementptr inbounds %class.Node, ptr %5, i32 0, i32 1
  %7 = load ptr, ptr %6, align 8
  %8 = load i32, ptr %4, align 4
  %9 = zext i32 %8 to i64
  %10 = getelementptr inbounds ptr, ptr %7, i64 %9
  %11 = load ptr, ptr %10, align 8
  ret ptr %11
}

; Function Attrs: mustprogress nounwind uwtable
define hidden noundef ptr @_ZNK16CompressBitsNode5ValueEP8PhaseGVN(ptr noundef nonnull align 8 dereferenceable(64) %0, ptr noundef %1) unnamed_addr #1 align 2 {
  %3 = alloca ptr, align 8
  %4 = alloca ptr, align 8
  %5 = alloca ptr, align 8
  %6 = alloca ptr, align 8
  %7 = alloca ptr, align 8
  %8 = alloca i8, align 1
  %9 = alloca ptr, align 8
  %10 = alloca ptr, align 8
  %11 = alloca i32, align 4
  %12 = alloca i64, align 8
  %13 = alloca i64, align 8
  %14 = alloca i64, align 8
  store ptr %0, ptr %4, align 8
  store ptr %1, ptr %5, align 8
  %15 = load ptr, ptr %4, align 8
  %16 = load ptr, ptr %5, align 8
  %17 = call noundef ptr @_ZNK4Node2inEj(ptr noundef nonnull align 8 dereferenceable(52) %15, i32 noundef 1)
  %18 = call noundef ptr @_ZNK11PhaseValues4typeEPK4Node(ptr noundef nonnull align 8 dereferenceable(2400) %16, ptr noundef %17)
  store ptr %18, ptr %6, align 8
  %19 = load ptr, ptr %5, align 8
  %20 = call noundef ptr @_ZNK4Node2inEj(ptr noundef nonnull align 8 dereferenceable(52) %15, i32 noundef 2)
  %21 = call noundef ptr @_ZNK11PhaseValues4typeEPK4Node(ptr noundef nonnull align 8 dereferenceable(2400) %19, ptr noundef %20)
  store ptr %21, ptr %7, align 8
  %22 = load ptr, ptr %6, align 8
  %23 = load ptr, ptr @_ZN4Type3TOPE, align 8
  %24 = icmp eq ptr %22, %23
  br i1 %24, label %29, label %25

25:                                               ; preds = %2
  %26 = load ptr, ptr %7, align 8
  %27 = load ptr, ptr @_ZN4Type3TOPE, align 8
  %28 = icmp eq ptr %26, %27
  br i1 %28, label %29, label %31

29:                                               ; preds = %25, %2
  %30 = load ptr, ptr @_ZN4Type3TOPE, align 8
  store ptr %30, ptr %3, align 8
  br label %80

31:                                               ; preds = %25
  %32 = load ptr, ptr %15, align 8
  %33 = getelementptr inbounds ptr, ptr %32, i64 5
  %34 = load ptr, ptr %33, align 8
  %35 = call noundef ptr %34(ptr noundef nonnull align 8 dereferenceable(64) %15)
  %36 = call noundef zeroext i8 @_ZNK4Type10basic_typeEv(ptr noundef nonnull align 8 dereferenceable(20) %35)
  store i8 %36, ptr %8, align 1
  %37 = load ptr, ptr %6, align 8
  %38 = load i8, ptr %8, align 1
  %39 = call noundef ptr @_ZNK4Type10is_integerE9BasicType(ptr noundef nonnull align 8 dereferenceable(20) %37, i8 noundef zeroext %38)
  store ptr %39, ptr %9, align 8
  %40 = load ptr, ptr %7, align 8
  %41 = load i8, ptr %8, align 1
  %42 = call noundef ptr @_ZNK4Type10is_integerE9BasicType(ptr noundef nonnull align 8 dereferenceable(20) %40, i8 noundef zeroext %41)
  store ptr %42, ptr %10, align 8
  %43 = load i8, ptr %8, align 1
  %44 = zext i8 %43 to i32
  %45 = icmp eq i32 %44, 10
  %46 = select i1 %45, i32 32, i32 64
  store i32 %46, ptr %11, align 4
  %47 = load ptr, ptr %9, align 8
  %48 = call noundef zeroext i1 @_ZNK11TypeInteger6is_conEv(ptr noundef nonnull align 8 dereferenceable(22) %47)
  br i1 %48, label %49, label %75

49:                                               ; preds = %31
  %50 = load ptr, ptr %10, align 8
  %51 = call noundef zeroext i1 @_ZNK11TypeInteger6is_conEv(ptr noundef nonnull align 8 dereferenceable(22) %50)
  br i1 %51, label %52, label %75

52:                                               ; preds = %49
  %53 = load ptr, ptr %9, align 8
  %54 = load i8, ptr %8, align 1
  %55 = call noundef i64 @_ZNK11TypeInteger15get_con_as_longE9BasicType(ptr noundef nonnull align 8 dereferenceable(22) %53, i8 noundef zeroext %54)
  store i64 %55, ptr %12, align 8
  %56 = load ptr, ptr %10, align 8
  %57 = load i8, ptr %8, align 1
  %58 = call noundef i64 @_ZNK11TypeInteger15get_con_as_longE9BasicType(ptr noundef nonnull align 8 dereferenceable(22) %56, i8 noundef zeroext %57)
  store i64 %58, ptr %13, align 8
  %59 = load i64, ptr %12, align 8
  %60 = load i64, ptr %13, align 8
  %61 = load i32, ptr %11, align 4
  %62 = call noundef i64 @_ZN16CompressBitsNode13compress_bitsElli(i64 noundef %59, i64 noundef %60, i32 noundef %61)
  store i64 %62, ptr %14, align 8
  %63 = load i8, ptr %8, align 1
  %64 = zext i8 %63 to i32
  %65 = icmp eq i32 %64, 10
  br i1 %65, label %66, label %70

66:                                               ; preds = %52
  %67 = load i64, ptr %14, align 8
  %68 = trunc i64 %67 to i32
  %69 = call noundef ptr @_ZN7TypeInt4makeEi(i32 noundef %68)
  br label %73

70:                                               ; preds = %52
  %71 = load i64, ptr %14, align 8
  %72 = call noundef ptr @_ZN8TypeLong4makeEl(i64 noundef %71)
  br label %73

73:                                               ; preds = %70, %66
  %74 = phi ptr [ %69, %66 ], [ %72, %70 ]
  store ptr %74, ptr %3, align 8
  br label %80

75:                                               ; preds = %49, %31
  %76 = load ptr, ptr %9, align 8
  %77 = load ptr, ptr %10, align 8
  %78 = load i8, ptr %8, align 1
  %79 = call noundef ptr @_ZL16bitshuffle_valuePK11TypeIntegerS1_i9BasicType(ptr noundef %76, ptr noundef %77, i32 noundef 65, i8 noundef zeroext %78)
  store ptr %79, ptr %3, align 8
  br label %80

80:                                               ; preds = %75, %73, %29
  %81 = load ptr, ptr %3, align 8
  ret ptr %81
}