; Function Attrs: mustprogress nounwind uwtable
define hidden noundef ptr @_ZNK16CompressBitsNode5ValueEP8PhaseGVN(ptr noundef nonnull align 8 dereferenceable(64) %0, ptr nocapture noundef readonly %1) unnamed_addr #1 align 2 {
  %3 = getelementptr inbounds i8, ptr %0, i64 8
  %4 = load ptr, ptr %3, align 8
  %5 = getelementptr inbounds i8, ptr %4, i64 8
  %6 = load ptr, ptr %5, align 8
  %7 = getelementptr inbounds i8, ptr %1, i64 40
  %8 = load ptr, ptr %7, align 8
  %9 = getelementptr inbounds i8, ptr %6, i64 40
  %10 = load i32, ptr %9, align 8
  %11 = getelementptr inbounds i8, ptr %8, i64 16
  %12 = load ptr, ptr %11, align 8
  %13 = zext i32 %10 to i64
  %14 = getelementptr inbounds ptr, ptr %12, i64 %13
  %15 = load ptr, ptr %14, align 8
  %16 = getelementptr inbounds i8, ptr %4, i64 16
  %17 = load ptr, ptr %16, align 8
  %18 = getelementptr inbounds i8, ptr %17, i64 40
  %19 = load i32, ptr %18, align 8
  %20 = zext i32 %19 to i64
  %21 = getelementptr inbounds ptr, ptr %12, i64 %20
  %22 = load ptr, ptr %21, align 8
  %23 = load ptr, ptr @_ZN4Type3TOPE, align 8
  %24 = icmp eq ptr %15, %23
  %25 = icmp eq ptr %22, %23
  %or.cond = or i1 %24, %25
  br i1 %or.cond, label %76, label %26

26:                                               ; preds = %2
  %27 = load ptr, ptr %0, align 8
  %28 = getelementptr inbounds i8, ptr %27, i64 40
  %29 = load ptr, ptr %28, align 8
  %30 = tail call noundef ptr %29(ptr noundef nonnull align 8 dereferenceable(64) %0) #5
  %31 = getelementptr inbounds i8, ptr %30, i64 16
  %32 = load i32, ptr %31, align 8
  %33 = zext i32 %32 to i64
  %34 = getelementptr inbounds [0 x %"struct.Type::TypeInfo"], ptr @_ZN4Type10_type_infoE, i64 0, i64 %33, i32 1
  %35 = load i8, ptr %34, align 4
  %36 = icmp eq i8 %35, 10
  %37 = select i1 %36, i32 32, i32 64
  %38 = load ptr, ptr %15, align 8
  %39 = getelementptr inbounds i8, ptr %38, i64 184
  %40 = load ptr, ptr %39, align 8
  %41 = tail call noundef i64 %40(ptr noundef nonnull align 8 dereferenceable(22) %15) #5
  %42 = load ptr, ptr %15, align 8
  %43 = getelementptr inbounds i8, ptr %42, i64 176
  %44 = load ptr, ptr %43, align 8
  %45 = tail call noundef i64 %44(ptr noundef nonnull align 8 dereferenceable(22) %15) #5
  %46 = icmp eq i64 %41, %45
  br i1 %46, label %47, label %74

47:                                               ; preds = %26
  %48 = load ptr, ptr %22, align 8
  %49 = getelementptr inbounds i8, ptr %48, i64 184
  %50 = load ptr, ptr %49, align 8
  %51 = tail call noundef i64 %50(ptr noundef nonnull align 8 dereferenceable(22) %22) #5
  %52 = load ptr, ptr %22, align 8
  %53 = getelementptr inbounds i8, ptr %52, i64 176
  %54 = load ptr, ptr %53, align 8
  %55 = tail call noundef i64 %54(ptr noundef nonnull align 8 dereferenceable(22) %22) #5
  %56 = icmp eq i64 %51, %55
  br i1 %56, label %57, label %74

57:                                               ; preds = %47
  %58 = tail call noundef i64 @_ZNK11TypeInteger15get_con_as_longE9BasicType(ptr noundef nonnull align 8 dereferenceable(22) %15, i8 noundef zeroext %35) #5
  %59 = tail call noundef i64 @_ZNK11TypeInteger15get_con_as_longE9BasicType(ptr noundef nonnull align 8 dereferenceable(22) %22, i8 noundef zeroext %35) #5
  br label %.lr.ph.i

.lr.ph.i:                                         ; preds = %57, %.lr.ph.i
  %.019.i = phi i32 [ %.1.i, %.lr.ph.i ], [ 0, %57 ]
  %.01018.i = phi i32 [ %68, %.lr.ph.i ], [ 0, %57 ]
  %.01117.i = phi i64 [ %.112.i, %.lr.ph.i ], [ 0, %57 ]
  %.01316.i = phi i64 [ %66, %.lr.ph.i ], [ %58, %57 ]
  %.01415.i = phi i64 [ %67, %.lr.ph.i ], [ %59, %57 ]
  %60 = and i64 %.01415.i, 1
  %.not.i = icmp eq i64 %60, 0
  %61 = and i64 %.01316.i, 1
  %62 = zext nneg i32 %.019.i to i64
  %63 = shl nuw i64 %61, %62
  %64 = select i1 %.not.i, i64 0, i64 %63
  %.112.i = or i64 %64, %.01117.i
  %65 = trunc nuw nsw i64 %60 to i32
  %.1.i = add i32 %.019.i, %65
  %66 = ashr i64 %.01316.i, 1
  %67 = ashr i64 %.01415.i, 1
  %68 = add nuw nsw i32 %.01018.i, 1
  %exitcond.not.i = icmp eq i32 %68, %37
  br i1 %exitcond.not.i, label %_ZN16CompressBitsNode13compress_bitsElli.exit, label %.lr.ph.i, !llvm.loop !6

_ZN16CompressBitsNode13compress_bitsElli.exit:    ; preds = %.lr.ph.i
  br i1 %36, label %69, label %72

69:                                               ; preds = %_ZN16CompressBitsNode13compress_bitsElli.exit
  %70 = trunc i64 %.112.i to i32
  %71 = tail call noundef ptr @_ZN7TypeInt4makeEi(i32 noundef %70) #5
  br label %76

72:                                               ; preds = %_ZN16CompressBitsNode13compress_bitsElli.exit
  %73 = tail call noundef ptr @_ZN8TypeLong4makeEl(i64 noundef %.112.i) #5
  br label %76

74:                                               ; preds = %47, %26
  %75 = tail call fastcc noundef ptr @_ZL16bitshuffle_valuePK11TypeIntegerS1_i9BasicType(ptr noundef nonnull %15, ptr noundef %22, i32 noundef 65, i8 noundef zeroext %35)
  br label %76

76:                                               ; preds = %2, %69, %72, %74
  %.0 = phi ptr [ %75, %74 ], [ %71, %69 ], [ %73, %72 ], [ %23, %2 ]
  ret ptr %.0
}